target datalayout = "e-m:e-p270:32:32-p271:32:32-p272:64:64-i64:64-i128:128-f80:128-n8:16:32:64-S128"
target triple = "x86_64-pc-linux-gnu"

%struct.sct_ctx_st = type { ptr, ptr, i64, ptr, i64, ptr, i64, ptr, i64, i64, ptr, ptr }

@.str = private unnamed_addr constant [34 x i8] c"../openssl/crypto/ct/ct_sct_ctx.c\00", align 1

; Function Attrs: nounwind uwtable
define internal i32 @ct_x509_get_ext(ptr noundef %0, i32 noundef %1, ptr noundef %2) #0 {
  %4 = alloca ptr, align 8
  %5 = alloca i32, align 4
  %6 = alloca ptr, align 8
  %7 = alloca i32, align 4
  store ptr %0, ptr %4, align 8, !tbaa !22
  store i32 %1, ptr %5, align 4, !tbaa !24
  store ptr %2, ptr %6, align 8, !tbaa !28
  call void @llvm.lifetime.start.p0(i64 4, ptr %7) #3
  %8 = load ptr, ptr %4, align 8, !tbaa !22
  %9 = load i32, ptr %5, align 4, !tbaa !24
  %10 = call i32 @X509_get_ext_by_NID(ptr noundef %8, i32 noundef %9, i32 noundef -1)
  store i32 %10, ptr %7, align 4, !tbaa !24
  %11 = load ptr, ptr %6, align 8, !tbaa !28
  %12 = icmp ne ptr %11, null
  br i1 %12, label %13, label %26

13:                                               ; preds = %3
  %14 = load i32, ptr %7, align 4, !tbaa !24
  %15 = icmp sge i32 %14, 0
  br i1 %15, label %16, label %22

16:                                               ; preds = %13
  %17 = load ptr, ptr %4, align 8, !tbaa !22
  %18 = load i32, ptr %5, align 4, !tbaa !24
  %19 = load i32, ptr %7, align 4, !tbaa !24
  %20 = call i32 @X509_get_ext_by_NID(ptr noundef %17, i32 noundef %18, i32 noundef %19)
  %21 = icmp sge i32 %20, 0
  br label %22

22:                                               ; preds = %16, %13
  %23 = phi i1 [ false, %13 ], [ %21, %16 ]
  %24 = zext i1 %23 to i32
  %25 = load ptr, ptr %6, align 8, !tbaa !28
  store i32 %24, ptr %25, align 4, !tbaa !24
  br label %26

26:                                               ; preds = %22, %3
  %27 = load i32, ptr %7, align 4, !tbaa !24
  call void @llvm.lifetime.end.p0(i64 4, ptr %7) #3
  ret i32 %27
}

; Function Attrs: nounwind uwtable
define i32 @SCT_CTX_set1_cert(ptr noundef %0, ptr noundef %1, ptr noundef %2) #0 {
  %4 = alloca i32, align 4
  %5 = alloca ptr, align 8
  %6 = alloca ptr, align 8
  %7 = alloca ptr, align 8
  %8 = alloca ptr, align 8
  %9 = alloca ptr, align 8
  %10 = alloca ptr, align 8
  %11 = alloca i32, align 4
  %12 = alloca i32, align 4
  %13 = alloca i32, align 4
  %14 = alloca i32, align 4
  %15 = alloca i32, align 4
  %16 = alloca i32, align 4
  %17 = alloca i32, align 4
  store ptr %0, ptr %5, align 8, !tbaa !10
  store ptr %1, ptr %6, align 8, !tbaa !22
  store ptr %2, ptr %7, align 8, !tbaa !22
  call void @llvm.lifetime.start.p0(i64 8, ptr %8) #3
  store ptr null, ptr %8, align 8, !tbaa !8
  call void @llvm.lifetime.start.p0(i64 8, ptr %9) #3
  store ptr null, ptr %9, align 8, !tbaa !8
  call void @llvm.lifetime.start.p0(i64 8, ptr %10) #3
  store ptr null, ptr %10, align 8, !tbaa !22
  call void @llvm.lifetime.start.p0(i64 4, ptr %11) #3
  store i32 0, ptr %11, align 4, !tbaa !24
  call void @llvm.lifetime.start.p0(i64 4, ptr %12) #3
  store i32 0, ptr %12, align 4, !tbaa !24
  call void @llvm.lifetime.start.p0(i64 4, ptr %13) #3
  store i32 -1, ptr %13, align 4, !tbaa !24
  call void @llvm.lifetime.start.p0(i64 4, ptr %14) #3
  call void @llvm.lifetime.start.p0(i64 4, ptr %15) #3
  call void @llvm.lifetime.start.p0(i64 4, ptr %16) #3
  %18 = load ptr, ptr %6, align 8, !tbaa !22
  %19 = call i32 @ct_x509_get_ext(ptr noundef %18, i32 noundef 952, ptr noundef %14)
  store i32 %19, ptr %16, align 4, !tbaa !24
  %20 = load i32, ptr %14, align 4, !tbaa !24
  %21 = icmp ne i32 %20, 0
  br i1 %21, label %22, label %23

22:                                               ; preds = %3
  br label %102

23:                                               ; preds = %3
  %24 = load i32, ptr %16, align 4, !tbaa !24
  %25 = icmp eq i32 %24, -1
  br i1 %25, label %26, label %37

26:                                               ; preds = %23
  %27 = load ptr, ptr %7, align 8, !tbaa !22
  %28 = icmp ne ptr %27, null
  br i1 %28, label %29, label %30

29:                                               ; preds = %26
  br label %102

30:                                               ; preds = %26
  %31 = load ptr, ptr %6, align 8, !tbaa !22
  %32 = call i32 @i2d_X509(ptr noundef %31, ptr noundef %8)
  store i32 %32, ptr %11, align 4, !tbaa !24
  %33 = load i32, ptr %11, align 4, !tbaa !24
  %34 = icmp slt i32 %33, 0
  br i1 %34, label %35, label %36

35:                                               ; preds = %30
  br label %102

36:                                               ; preds = %30
  br label %37

37:                                               ; preds = %36, %23
  %38 = load ptr, ptr %6, align 8, !tbaa !22
  %39 = call i32 @ct_x509_get_ext(ptr noundef %38, i32 noundef 951, ptr noundef %15)
  store i32 %39, ptr %13, align 4, !tbaa !24
  %40 = load i32, ptr %15, align 4, !tbaa !24
  %41 = icmp ne i32 %40, 0
  br i1 %41, label %42, label %43

42:                                               ; preds = %37
  br label %102

43:                                               ; preds = %37
  %44 = load i32, ptr %13, align 4, !tbaa !24
  %45 = icmp sge i32 %44, 0
  br i1 %45, label %46, label %50

46:                                               ; preds = %43
  %47 = load i32, ptr %16, align 4, !tbaa !24
  %48 = icmp sge i32 %47, 0
  br i1 %48, label %49, label %50

49:                                               ; preds = %46
  br label %102

50:                                               ; preds = %46, %43
  %51 = load i32, ptr %13, align 4, !tbaa !24
  %52 = icmp eq i32 %51, -1
  br i1 %52, label %53, label %55

53:                                               ; preds = %50
  %54 = load i32, ptr %16, align 4, !tbaa !24
  store i32 %54, ptr %13, align 4, !tbaa !24
  br label %55

55:                                               ; preds = %53, %50
  %56 = load i32, ptr %13, align 4, !tbaa !24
  %57 = icmp sge i32 %56, 0
  br i1 %57, label %58, label %80

58:                                               ; preds = %55
  %59 = load ptr, ptr %6, align 8, !tbaa !22
  %60 = call ptr @X509_dup(ptr noundef %59)
  store ptr %60, ptr %10, align 8, !tbaa !22
  %61 = load ptr, ptr %10, align 8, !tbaa !22
  %62 = icmp eq ptr %61, null
  br i1 %62, label %63, label %64

63:                                               ; preds = %58
  br label %102

64:                                               ; preds = %58
  %65 = load ptr, ptr %10, align 8, !tbaa !22
  %66 = load i32, ptr %13, align 4, !tbaa !24
  %67 = call ptr @X509_delete_ext(ptr noundef %65, i32 noundef %66)
  call void @X509_EXTENSION_free(ptr noundef %67)
  %68 = load ptr, ptr %10, align 8, !tbaa !22
  %69 = load ptr, ptr %7, align 8, !tbaa !22
  %70 = call i32 @ct_x509_cert_fixup(ptr noundef %68, ptr noundef %69)
  %71 = icmp ne i32 %70, 0
  br i1 %71, label %73, label %72

72:                                               ; preds = %64
  br label %102

73:                                               ; preds = %64
  %74 = load ptr, ptr %10, align 8, !tbaa !22
  %75 = call i32 @i2d_re_X509_tbs(ptr noundef %74, ptr noundef %9)
  store i32 %75, ptr %12, align 4, !tbaa !24
  %76 = load i32, ptr %12, align 4, !tbaa !24
  %77 = icmp sle i32 %76, 0
  br i1 %77, label %78, label %79

78:                                               ; preds = %73
  br label %102

79:                                               ; preds = %73
  br label %80

80:                                               ; preds = %79, %55
  %81 = load ptr, ptr %10, align 8, !tbaa !22
  call void @X509_free(ptr noundef %81)
  %82 = load ptr, ptr %5, align 8, !tbaa !10
  %83 = getelementptr inbounds nuw %struct.sct_ctx_st, ptr %82, i32 0, i32 5
  %84 = load ptr, ptr %83, align 8, !tbaa !20
  call void @CRYPTO_free(ptr noundef %84, ptr noundef @.str, i32 noundef 185)
  %85 = load ptr, ptr %8, align 8, !tbaa !8
  %86 = load ptr, ptr %5, align 8, !tbaa !10
  %87 = getelementptr inbounds nuw %struct.sct_ctx_st, ptr %86, i32 0, i32 5
  store ptr %85, ptr %87, align 8, !tbaa !20
  %88 = load i32, ptr %11, align 4, !tbaa !24
  %89 = sext i32 %88 to i64
  %90 = load ptr, ptr %5, align 8, !tbaa !10
  %91 = getelementptr inbounds nuw %struct.sct_ctx_st, ptr %90, i32 0, i32 6
  store i64 %89, ptr %91, align 8, !tbaa !26
  %92 = load ptr, ptr %5, align 8, !tbaa !10
  %93 = getelementptr inbounds nuw %struct.sct_ctx_st, ptr %92, i32 0, i32 7
  %94 = load ptr, ptr %93, align 8, !tbaa !21
  call void @CRYPTO_free(ptr noundef %94, ptr noundef @.str, i32 noundef 189)
  %95 = load ptr, ptr %9, align 8, !tbaa !8
  %96 = load ptr, ptr %5, align 8, !tbaa !10
  %97 = getelementptr inbounds nuw %struct.sct_ctx_st, ptr %96, i32 0, i32 7
  store ptr %95, ptr %97, align 8, !tbaa !21
  %98 = load i32, ptr %12, align 4, !tbaa !24
  %99 = sext i32 %98 to i64
  %100 = load ptr, ptr %5, align 8, !tbaa !10
  %101 = getelementptr inbounds nuw %struct.sct_ctx_st, ptr %100, i32 0, i32 8
  store i64 %99, ptr %101, align 8, !tbaa !27
  store i32 1, ptr %4, align 4
  store i32 1, ptr %17, align 4
  br label %106

102:                                              ; preds = %78, %72, %63, %49, %42, %35, %29, %22
  %103 = load ptr, ptr %8, align 8, !tbaa !8
  call void @CRYPTO_free(ptr noundef %103, ptr noundef @.str, i32 noundef 195)
  %104 = load ptr, ptr %9, align 8, !tbaa !8
  call void @CRYPTO_free(ptr noundef %104, ptr noundef @.str, i32 noundef 196)
  %105 = load ptr, ptr %10, align 8, !tbaa !22
  call void @X509_free(ptr noundef %105)
  store i32 0, ptr %4, align 4
  store i32 1, ptr %17, align 4
  br label %106

106:                                              ; preds = %102, %80
  call void @llvm.lifetime.end.p0(i64 4, ptr %16) #3
  call void @llvm.lifetime.end.p0(i64 4, ptr %15) #3
  call void @llvm.lifetime.end.p0(i64 4, ptr %14) #3
  call void @llvm.lifetime.end.p0(i64 4, ptr %13) #3
  call void @llvm.lifetime.end.p0(i64 4, ptr %12) #3
  call void @llvm.lifetime.end.p0(i64 4, ptr %11) #3
  call void @llvm.lifetime.end.p0(i64 8, ptr %10) #3
  call void @llvm.lifetime.end.p0(i64 8, ptr %9) #3
  call void @llvm.lifetime.end.p0(i64 8, ptr %8) #3
  %107 = load i32, ptr %4, align 4
  ret i32 %107
}