; Function Attrs: nounwind uwtable
define range(i32 0, 2) i32 @SCT_CTX_set1_cert(ptr noundef captures(none) %0, ptr noundef %1, ptr noundef %2) local_unnamed_addr #0 {
  %4 = alloca ptr, align 8
  %5 = alloca ptr, align 8
  call void @llvm.lifetime.start.p0(i64 8, ptr nonnull %4) #4
  store ptr null, ptr %4, align 8, !tbaa !18
  call void @llvm.lifetime.start.p0(i64 8, ptr nonnull %5) #4
  store ptr null, ptr %5, align 8, !tbaa !18
  %6 = tail call i32 @X509_get_ext_by_NID(ptr noundef %1, i32 noundef 952, i32 noundef -1) #4
  %7 = icmp sgt i32 %6, -1
  br i1 %7, label %ct_x509_get_ext.exit, label %10

ct_x509_get_ext.exit:                             ; preds = %3
  %8 = tail call i32 @X509_get_ext_by_NID(ptr noundef %1, i32 noundef 952, i32 noundef %6) #4
  %9 = icmp slt i32 %8, 0
  br i1 %9, label %.thread, label %42

10:                                               ; preds = %3
  %11 = icmp eq i32 %6, -1
  br i1 %11, label %12, label %.thread

12:                                               ; preds = %10
  %.not39 = icmp eq ptr %2, null
  br i1 %.not39, label %13, label %42

13:                                               ; preds = %12
  %14 = call i32 @i2d_X509(ptr noundef %1, ptr noundef nonnull %4) #4
  %15 = icmp slt i32 %14, 0
  br i1 %15, label %42, label %.thread

.thread:                                          ; preds = %ct_x509_get_ext.exit, %13, %10
  %.032 = phi i32 [ %14, %13 ], [ 0, %10 ], [ 0, %ct_x509_get_ext.exit ]
  %16 = call i32 @X509_get_ext_by_NID(ptr noundef %1, i32 noundef 951, i32 noundef -1) #4
  %17 = icmp sgt i32 %16, -1
  br i1 %17, label %ct_x509_get_ext.exit42, label %.thread46

ct_x509_get_ext.exit42:                           ; preds = %.thread
  %18 = call i32 @X509_get_ext_by_NID(ptr noundef %1, i32 noundef 951, i32 noundef %16) #4
  %19 = and i32 %18, %6
  %brmerge.not.not = icmp sgt i32 %19, -1
  br i1 %brmerge.not.not, label %42, label %.thread46

.thread46:                                        ; preds = %ct_x509_get_ext.exit42, %.thread
  %20 = icmp eq i32 %16, -1
  %spec.select = select i1 %20, i32 %6, i32 %16
  %21 = icmp sgt i32 %spec.select, -1
  br i1 %21, label %22, label %31

22:                                               ; preds = %.thread46
  %23 = call ptr @X509_dup(ptr noundef %1) #4
  %24 = icmp eq ptr %23, null
  br i1 %24, label %42, label %25

25:                                               ; preds = %22
  %26 = call ptr @X509_delete_ext(ptr noundef nonnull %23, i32 noundef %spec.select) #4
  call void @X509_EXTENSION_free(ptr noundef %26) #4
  %27 = call fastcc i32 @ct_x509_cert_fixup(ptr noundef %23, ptr noundef %2)
  %.not41 = icmp eq i32 %27, 0
  br i1 %.not41, label %42, label %28

28:                                               ; preds = %25
  %29 = call i32 @i2d_re_X509_tbs(ptr noundef nonnull %23, ptr noundef nonnull %5) #4
  %30 = icmp slt i32 %29, 1
  br i1 %30, label %42, label %31

31:                                               ; preds = %28, %.thread46
  %.1 = phi ptr [ %23, %28 ], [ null, %.thread46 ]
  %.031 = phi i32 [ %29, %28 ], [ 0, %.thread46 ]
  call void @X509_free(ptr noundef %.1) #4
  %32 = getelementptr inbounds nuw i8, ptr %0, i64 40
  %33 = load ptr, ptr %32, align 8, !tbaa !16
  call void @CRYPTO_free(ptr noundef %33, ptr noundef nonnull @.str, i32 noundef 185) #4
  %34 = load ptr, ptr %4, align 8, !tbaa !18
  store ptr %34, ptr %32, align 8, !tbaa !16
  %35 = zext nneg i32 %.032 to i64
  %36 = getelementptr inbounds nuw i8, ptr %0, i64 48
  store i64 %35, ptr %36, align 8, !tbaa !19
  %37 = getelementptr inbounds nuw i8, ptr %0, i64 56
  %38 = load ptr, ptr %37, align 8, !tbaa !17
  call void @CRYPTO_free(ptr noundef %38, ptr noundef nonnull @.str, i32 noundef 189) #4
  %39 = load ptr, ptr %5, align 8, !tbaa !18
  store ptr %39, ptr %37, align 8, !tbaa !17
  %40 = zext nneg i32 %.031 to i64
  %41 = getelementptr inbounds nuw i8, ptr %0, i64 64
  store i64 %40, ptr %41, align 8, !tbaa !20
  br label %45

42:                                               ; preds = %ct_x509_get_ext.exit42, %28, %25, %22, %13, %12, %ct_x509_get_ext.exit
  %.033 = phi ptr [ null, %ct_x509_get_ext.exit ], [ null, %12 ], [ null, %13 ], [ null, %ct_x509_get_ext.exit42 ], [ null, %22 ], [ %23, %28 ], [ %23, %25 ]
  %43 = load ptr, ptr %4, align 8, !tbaa !18
  call void @CRYPTO_free(ptr noundef %43, ptr noundef nonnull @.str, i32 noundef 195) #4
  %44 = load ptr, ptr %5, align 8, !tbaa !18
  call void @CRYPTO_free(ptr noundef %44, ptr noundef nonnull @.str, i32 noundef 196) #4
  call void @X509_free(ptr noundef %.033) #4
  br label %45

45:                                               ; preds = %42, %31
  %.0 = phi i32 [ 0, %42 ], [ 1, %31 ]
  call void @llvm.lifetime.end.p0(i64 8, ptr nonnull %5) #4
  call void @llvm.lifetime.end.p0(i64 8, ptr nonnull %4) #4
  ret i32 %.0
}